
target.elf:     file format elf32-littleriscv


Disassembly of section .text:

00000000 <my_start>:
   0:	4081                	li	ra,0
   2:	4101                	li	sp,0
   4:	4181                	li	gp,0
   6:	4201                	li	tp,0
   8:	4281                	li	t0,0
   a:	4301                	li	t1,0
   c:	4381                	li	t2,0
   e:	4401                	li	s0,0
  10:	4481                	li	s1,0
  12:	4501                	li	a0,0
  14:	4581                	li	a1,0
  16:	4601                	li	a2,0
  18:	4681                	li	a3,0
  1a:	4701                	li	a4,0
  1c:	4781                	li	a5,0
  1e:	20000117          	auipc	sp,0x20000
  22:	7e210113          	addi	sp,sp,2018 # 20000800 <_my_stack_start>
  26:	22ad                	jal	190 <load_data>
  28:	148000ef          	jal	ra,170 <init_bss>
  2c:	0060006f          	j	32 <main>
  30:	0001                	nop

00000032 <main>:
  32:	1101                	addi	sp,sp,-32
  34:	ce06                	sw	ra,28(sp)
  36:	cc22                	sw	s0,24(sp)
  38:	1000                	addi	s0,sp,32
  3a:	fe042823          	sw	zero,-16(s0)
  3e:	fe042023          	sw	zero,-32(s0)
  42:	fe042223          	sw	zero,-28(s0)
  46:	fe042423          	sw	zero,-24(s0)
  4a:	fe042623          	sw	zero,-20(s0)
  4e:	288d                	jal	c0 <sum_0>
  50:	87aa                	mv	a5,a0
  52:	fef42023          	sw	a5,-32(s0)
  56:	20ad                	jal	c0 <sum_0>
  58:	87aa                	mv	a5,a0
  5a:	fef42023          	sw	a5,-32(s0)
  5e:	208d                	jal	c0 <sum_0>
  60:	87aa                	mv	a5,a0
  62:	fef42023          	sw	a5,-32(s0)
  66:	fe042783          	lw	a5,-32(s0)
  6a:	0785                	addi	a5,a5,1
  6c:	fef42823          	sw	a5,-16(s0)
  70:	ff042503          	lw	a0,-16(s0)
  74:	20bd                	jal	e2 <sum_double>
  76:	87aa                	mv	a5,a0
  78:	fef42223          	sw	a5,-28(s0)
  7c:	4795                	li	a5,5
  7e:	fef42823          	sw	a5,-16(s0)
  82:	fe442703          	lw	a4,-28(s0)
  86:	ff042783          	lw	a5,-16(s0)
  8a:	0785                	addi	a5,a5,1
  8c:	85be                	mv	a1,a5
  8e:	853a                	mv	a0,a4
  90:	2049                	jal	112 <sum_2>
  92:	87aa                	mv	a5,a0
  94:	fef42423          	sw	a5,-24(s0)
  98:	fe042783          	lw	a5,-32(s0)
  9c:	fe442703          	lw	a4,-28(s0)
  a0:	fe842683          	lw	a3,-24(s0)
  a4:	8636                	mv	a2,a3
  a6:	85ba                	mv	a1,a4
  a8:	853e                	mv	a0,a5
  aa:	2841                	jal	13a <sum_3>
  ac:	87aa                	mv	a5,a0
  ae:	fef42623          	sw	a5,-20(s0)
  b2:	fec42783          	lw	a5,-20(s0)
  b6:	853e                	mv	a0,a5
  b8:	40f2                	lw	ra,28(sp)
  ba:	4462                	lw	s0,24(sp)
  bc:	6105                	addi	sp,sp,32
  be:	8082                	ret

000000c0 <sum_0>:
  c0:	1171                	addi	sp,sp,-4
  c2:	c022                	sw	s0,0(sp)
  c4:	0040                	addi	s0,sp,4
  c6:	200007b7          	lui	a5,0x20000
  ca:	0007a783          	lw	a5,0(a5) # 20000000 <_data_section_vma_end>
  ce:	00178693          	addi	a3,a5,1
  d2:	20000737          	lui	a4,0x20000
  d6:	00d72023          	sw	a3,0(a4) # 20000000 <_data_section_vma_end>
  da:	853e                	mv	a0,a5
  dc:	4402                	lw	s0,0(sp)
  de:	0111                	addi	sp,sp,4
  e0:	8082                	ret

000000e2 <sum_double>:
  e2:	1161                	addi	sp,sp,-8
  e4:	c222                	sw	s0,4(sp)
  e6:	0020                	addi	s0,sp,8
  e8:	fea42c23          	sw	a0,-8(s0)
  ec:	200007b7          	lui	a5,0x20000
  f0:	0047a703          	lw	a4,4(a5) # 20000004 <c.982>
  f4:	ff842783          	lw	a5,-8(s0)
  f8:	973e                	add	a4,a4,a5
  fa:	200007b7          	lui	a5,0x20000
  fe:	00e7a223          	sw	a4,4(a5) # 20000004 <c.982>
 102:	200007b7          	lui	a5,0x20000
 106:	0047a783          	lw	a5,4(a5) # 20000004 <c.982>
 10a:	853e                	mv	a0,a5
 10c:	4412                	lw	s0,4(sp)
 10e:	0121                	addi	sp,sp,8
 110:	8082                	ret

00000112 <sum_2>:
 112:	1151                	addi	sp,sp,-12
 114:	c422                	sw	s0,8(sp)
 116:	0060                	addi	s0,sp,12
 118:	fea42c23          	sw	a0,-8(s0)
 11c:	feb42a23          	sw	a1,-12(s0)
 120:	ff842703          	lw	a4,-8(s0)
 124:	ff442783          	lw	a5,-12(s0)
 128:	97ba                	add	a5,a5,a4
 12a:	01f7d713          	srli	a4,a5,0x1f
 12e:	97ba                	add	a5,a5,a4
 130:	8785                	srai	a5,a5,0x1
 132:	853e                	mv	a0,a5
 134:	4422                	lw	s0,8(sp)
 136:	0131                	addi	sp,sp,12
 138:	8082                	ret

0000013a <sum_3>:
 13a:	1121                	addi	sp,sp,-24
 13c:	ca06                	sw	ra,20(sp)
 13e:	c822                	sw	s0,16(sp)
 140:	0820                	addi	s0,sp,24
 142:	fea42823          	sw	a0,-16(s0)
 146:	feb42623          	sw	a1,-20(s0)
 14a:	fec42423          	sw	a2,-24(s0)
 14e:	ff042703          	lw	a4,-16(s0)
 152:	fec42783          	lw	a5,-20(s0)
 156:	973e                	add	a4,a4,a5
 158:	fe842783          	lw	a5,-24(s0)
 15c:	97ba                	add	a5,a5,a4
 15e:	458d                	li	a1,3
 160:	853e                	mv	a0,a5
 162:	28a9                	jal	1bc <__divsi3>
 164:	87aa                	mv	a5,a0
 166:	853e                	mv	a0,a5
 168:	40d2                	lw	ra,20(sp)
 16a:	4442                	lw	s0,16(sp)
 16c:	0161                	addi	sp,sp,24
 16e:	8082                	ret

00000170 <init_bss>:
 170:	20000797          	auipc	a5,0x20000
 174:	e9078793          	addi	a5,a5,-368 # 20000000 <_data_section_vma_end>
 178:	20000717          	auipc	a4,0x20000
 17c:	e8870713          	addi	a4,a4,-376 # 20000000 <_data_section_vma_end>
 180:	00f70763          	beq	a4,a5,18e <init_bss+0x1e>
 184:	0007a023          	sw	zero,0(a5)
 188:	0791                	addi	a5,a5,4
 18a:	fee7cde3          	blt	a5,a4,184 <init_bss+0x14>
 18e:	8082                	ret

00000190 <load_data>:
 190:	23c00793          	li	a5,572
 194:	20000717          	auipc	a4,0x20000
 198:	e6c70713          	addi	a4,a4,-404 # 20000000 <_data_section_vma_end>
 19c:	20000697          	auipc	a3,0x20000
 1a0:	e6468693          	addi	a3,a3,-412 # 20000000 <_data_section_vma_end>
 1a4:	00d70a63          	beq	a4,a3,1b8 <load_data+0x28>
 1a8:	0007a283          	lw	t0,0(a5)
 1ac:	00572023          	sw	t0,0(a4)
 1b0:	0711                	addi	a4,a4,4
 1b2:	0791                	addi	a5,a5,4
 1b4:	fed74ae3          	blt	a4,a3,1a8 <load_data+0x18>
 1b8:	8082                	ret
	...

000001bc <__divsi3>:
 1bc:	02054e63          	bltz	a0,1f8 <__umodsi3+0x8>
 1c0:	0405c363          	bltz	a1,206 <__umodsi3+0x16>

000001c4 <__udivsi3>:
 1c4:	862e                	mv	a2,a1
 1c6:	85aa                	mv	a1,a0
 1c8:	557d                	li	a0,-1
 1ca:	c215                	beqz	a2,1ee <__udivsi3+0x2a>
 1cc:	4685                	li	a3,1
 1ce:	00b67863          	bgeu	a2,a1,1de <__udivsi3+0x1a>
 1d2:	00c05663          	blez	a2,1de <__udivsi3+0x1a>
 1d6:	0606                	slli	a2,a2,0x1
 1d8:	0686                	slli	a3,a3,0x1
 1da:	feb66ce3          	bltu	a2,a1,1d2 <__udivsi3+0xe>
 1de:	4501                	li	a0,0
 1e0:	00c5e463          	bltu	a1,a2,1e8 <__udivsi3+0x24>
 1e4:	8d91                	sub	a1,a1,a2
 1e6:	8d55                	or	a0,a0,a3
 1e8:	8285                	srli	a3,a3,0x1
 1ea:	8205                	srli	a2,a2,0x1
 1ec:	faf5                	bnez	a3,1e0 <__udivsi3+0x1c>
 1ee:	8082                	ret

000001f0 <__umodsi3>:
 1f0:	8286                	mv	t0,ra
 1f2:	3fc9                	jal	1c4 <__udivsi3>
 1f4:	852e                	mv	a0,a1
 1f6:	8282                	jr	t0
 1f8:	40a00533          	neg	a0,a0
 1fc:	0005d763          	bgez	a1,20a <__umodsi3+0x1a>
 200:	40b005b3          	neg	a1,a1
 204:	b7c1                	j	1c4 <__udivsi3>
 206:	40b005b3          	neg	a1,a1
 20a:	8286                	mv	t0,ra
 20c:	3f65                	jal	1c4 <__udivsi3>
 20e:	40a00533          	neg	a0,a0
 212:	8282                	jr	t0

00000214 <__modsi3>:
 214:	8286                	mv	t0,ra
 216:	0005c763          	bltz	a1,224 <__modsi3+0x10>
 21a:	00054963          	bltz	a0,22c <__modsi3+0x18>
 21e:	375d                	jal	1c4 <__udivsi3>
 220:	852e                	mv	a0,a1
 222:	8282                	jr	t0
 224:	40b005b3          	neg	a1,a1
 228:	fe055be3          	bgez	a0,21e <__modsi3+0xa>
 22c:	40a00533          	neg	a0,a0
 230:	3f51                	jal	1c4 <__udivsi3>
 232:	40b00533          	neg	a0,a1
 236:	8282                	jr	t0
 238:	0000                	unimp
	...

Disassembly of section .my_stack:

20000700 <_my_stack_start-0x100>:
	...
