
target.elf:     file format elf32-littleriscv


Disassembly of section .text:

00000000 <my_start>:
   0:	4081                	li	ra,0
   2:	4101                	li	sp,0
   4:	4181                	li	gp,0
   6:	4201                	li	tp,0
   8:	4281                	li	t0,0
   a:	4301                	li	t1,0
   c:	4381                	li	t2,0
   e:	4401                	li	s0,0
  10:	4481                	li	s1,0
  12:	4501                	li	a0,0
  14:	4581                	li	a1,0
  16:	4601                	li	a2,0
  18:	4681                	li	a3,0
  1a:	4701                	li	a4,0
  1c:	4781                	li	a5,0
  1e:	20000117          	auipc	sp,0x20000
  22:	7e210113          	addi	sp,sp,2018 # 20000800 <_my_stack_start>
  26:	2ad1                	jal	1fa <load_data>
  28:	1b2000ef          	jal	ra,1da <init_bss>
  2c:	804022f3          	csrr	t0,0x804
  30:	40000293          	li	t0,1024
  34:	0022e293          	ori	t0,t0,2
  38:	30529073          	csrw	mtvec,t0
  3c:	30502373          	csrr	t1,mtvec
  40:	0dc000ef          	jal	ra,11c <led_cfg>
  44:	0ee000ef          	jal	ra,132 <led_ctrl>
  48:	20e000ef          	jal	ra,256 <watch_systick_reg>
  4c:	1d8000ef          	jal	ra,224 <systick_cfg>
  50:	206000ef          	jal	ra,256 <watch_systick_reg>
  54:	0001                	nop
  56:	30200073          	mret
	...

0000005c <watch_rcc_reg>:
  5c:	1171                	addi	sp,sp,-4
  5e:	c006                	sw	ra,0(sp)
  60:	20000797          	auipc	a5,0x20000
  64:	fa078793          	addi	a5,a5,-96 # 20000000 <_data_section_vma_start>
  68:	40021737          	lui	a4,0x40021
  6c:	4314                	lw	a3,0(a4)
  6e:	c394                	sw	a3,0(a5)
  70:	40021737          	lui	a4,0x40021
  74:	00470713          	addi	a4,a4,4 # 40021004 <__RCC_CFGR0>
  78:	4314                	lw	a3,0(a4)
  7a:	c3d4                	sw	a3,4(a5)
  7c:	40021737          	lui	a4,0x40021
  80:	00870713          	addi	a4,a4,8 # 40021008 <__RCC_INTR>
  84:	4314                	lw	a3,0(a4)
  86:	c794                	sw	a3,8(a5)
  88:	40021737          	lui	a4,0x40021
  8c:	00c70713          	addi	a4,a4,12 # 4002100c <__RCC_APB2PRSTR>
  90:	4314                	lw	a3,0(a4)
  92:	c7d4                	sw	a3,12(a5)
  94:	40021737          	lui	a4,0x40021
  98:	01070713          	addi	a4,a4,16 # 40021010 <__RCC_APB1PRSTR>
  9c:	4314                	lw	a3,0(a4)
  9e:	cb94                	sw	a3,16(a5)
  a0:	40021737          	lui	a4,0x40021
  a4:	01470713          	addi	a4,a4,20 # 40021014 <__RCC_AHBPCENR>
  a8:	4314                	lw	a3,0(a4)
  aa:	cbd4                	sw	a3,20(a5)
  ac:	40021737          	lui	a4,0x40021
  b0:	01870713          	addi	a4,a4,24 # 40021018 <__RCC_APB2PCENR>
  b4:	4314                	lw	a3,0(a4)
  b6:	cf94                	sw	a3,24(a5)
  b8:	40021737          	lui	a4,0x40021
  bc:	01c70713          	addi	a4,a4,28 # 4002101c <__RCC_APB1PCENR>
  c0:	4314                	lw	a3,0(a4)
  c2:	cfd4                	sw	a3,28(a5)
  c4:	40021737          	lui	a4,0x40021
  c8:	02470713          	addi	a4,a4,36 # 40021024 <__RCC_RSTSCKR>
  cc:	4314                	lw	a3,0(a4)
  ce:	d394                	sw	a3,32(a5)
  d0:	4082                	lw	ra,0(sp)
  d2:	0111                	addi	sp,sp,4
  d4:	8082                	ret

000000d6 <watch_gpiod_reg>:
  d6:	1171                	addi	sp,sp,-4
  d8:	c006                	sw	ra,0(sp)
  da:	20000797          	auipc	a5,0x20000
  de:	f4a78793          	addi	a5,a5,-182 # 20000024 <gpiod_struct>
  e2:	40011737          	lui	a4,0x40011
  e6:	40070713          	addi	a4,a4,1024 # 40011400 <__GPIOD_CFGLR>
  ea:	4314                	lw	a3,0(a4)
  ec:	c394                	sw	a3,0(a5)
  ee:	40011737          	lui	a4,0x40011
  f2:	40c70713          	addi	a4,a4,1036 # 4001140c <__GPIOD_OUTDR>
  f6:	00075683          	lhu	a3,0(a4)
  fa:	00d79223          	sh	a3,4(a5)
  fe:	40011737          	lui	a4,0x40011
 102:	41070713          	addi	a4,a4,1040 # 40011410 <__GPIOD_BSHR>
 106:	00075683          	lhu	a3,0(a4)
 10a:	00d79323          	sh	a3,6(a5)
 10e:	00275683          	lhu	a3,2(a4)
 112:	00d79423          	sh	a3,8(a5)
 116:	4082                	lw	ra,0(sp)
 118:	0111                	addi	sp,sp,4
 11a:	8082                	ret

0000011c <led_cfg>:
 11c:	1171                	addi	sp,sp,-4
 11e:	c006                	sw	ra,0(sp)
 120:	3f35                	jal	5c <watch_rcc_reg>
 122:	2849                	jal	1b4 <led_rcc_cfg>
 124:	3f25                	jal	5c <watch_rcc_reg>
 126:	3f45                	jal	d6 <watch_gpiod_reg>
 128:	2081                	jal	168 <led_gpio_cfg>
 12a:	3775                	jal	d6 <watch_gpiod_reg>
 12c:	4082                	lw	ra,0(sp)
 12e:	0111                	addi	sp,sp,4
 130:	8082                	ret

00000132 <led_ctrl>:
 132:	1151                	addi	sp,sp,-12
 134:	c406                	sw	ra,8(sp)
 136:	c222                	sw	s0,4(sp)
 138:	0060                	addi	s0,sp,12
 13a:	fea42a23          	sw	a0,-12(s0)
 13e:	ff442783          	lw	a5,-12(s0)
 142:	40011737          	lui	a4,0x40011
 146:	41070713          	addi	a4,a4,1040 # 40011410 <__GPIOD_BSHR>
 14a:	4685                	li	a3,1
 14c:	c789                	beqz	a5,156 <led_ctrl+0x24>
 14e:	06c2                	slli	a3,a3,0x10
 150:	c314                	sw	a3,0(a4)
 152:	00000563          	beqz	zero,15c <led_ctrl+0x2a>
 156:	00069693          	slli	a3,a3,0x0
 15a:	c314                	sw	a3,0(a4)
 15c:	ff440113          	addi	sp,s0,-12
 160:	c222                	sw	s0,4(sp)
 162:	c406                	sw	ra,8(sp)
 164:	0131                	addi	sp,sp,12
 166:	8082                	ret

00000168 <led_gpio_cfg>:
 168:	1171                	addi	sp,sp,-4
 16a:	c006                	sw	ra,0(sp)
 16c:	400117b7          	lui	a5,0x40011
 170:	40078793          	addi	a5,a5,1024 # 40011400 <__GPIOD_CFGLR>
 174:	4398                	lw	a4,0(a5)
 176:	46bd                	li	a3,15
 178:	00069693          	slli	a3,a3,0x0
 17c:	fff6c693          	not	a3,a3
 180:	8f75                	and	a4,a4,a3
 182:	4689                	li	a3,2
 184:	00069693          	slli	a3,a3,0x0
 188:	8f55                	or	a4,a4,a3
 18a:	c398                	sw	a4,0(a5)
 18c:	400117b7          	lui	a5,0x40011
 190:	40c78793          	addi	a5,a5,1036 # 4001140c <__GPIOD_OUTDR>
 194:	4398                	lw	a4,0(a5)
 196:	4685                	li	a3,1
 198:	00069693          	slli	a3,a3,0x0
 19c:	fff6c693          	not	a3,a3
 1a0:	8f75                	and	a4,a4,a3
 1a2:	4685                	li	a3,1
 1a4:	00069693          	slli	a3,a3,0x0
 1a8:	8f55                	or	a4,a4,a3
 1aa:	00e79023          	sh	a4,0(a5)
 1ae:	4082                	lw	ra,0(sp)
 1b0:	0111                	addi	sp,sp,4
 1b2:	8082                	ret

000001b4 <led_rcc_cfg>:
 1b4:	1171                	addi	sp,sp,-4
 1b6:	c006                	sw	ra,0(sp)
 1b8:	400217b7          	lui	a5,0x40021
 1bc:	01878793          	addi	a5,a5,24 # 40021018 <__RCC_APB2PCENR>
 1c0:	4398                	lw	a4,0(a5)
 1c2:	4685                	li	a3,1
 1c4:	0696                	slli	a3,a3,0x5
 1c6:	fff6c693          	not	a3,a3
 1ca:	8f75                	and	a4,a4,a3
 1cc:	4685                	li	a3,1
 1ce:	0696                	slli	a3,a3,0x5
 1d0:	8f55                	or	a4,a4,a3
 1d2:	c398                	sw	a4,0(a5)
 1d4:	4082                	lw	ra,0(sp)
 1d6:	0111                	addi	sp,sp,4
 1d8:	8082                	ret

000001da <init_bss>:
 1da:	20000797          	auipc	a5,0x20000
 1de:	e6a78793          	addi	a5,a5,-406 # 20000044 <_data_section_vma_end>
 1e2:	20000717          	auipc	a4,0x20000
 1e6:	e6270713          	addi	a4,a4,-414 # 20000044 <_data_section_vma_end>
 1ea:	00f70763          	beq	a4,a5,1f8 <init_bss+0x1e>
 1ee:	0007a023          	sw	zero,0(a5)
 1f2:	0791                	addi	a5,a5,4
 1f4:	fee7cde3          	blt	a5,a4,1ee <init_bss+0x14>
 1f8:	8082                	ret

000001fa <load_data>:
 1fa:	41800793          	li	a5,1048
 1fe:	20000717          	auipc	a4,0x20000
 202:	e0270713          	addi	a4,a4,-510 # 20000000 <_data_section_vma_start>
 206:	20000697          	auipc	a3,0x20000
 20a:	e3e68693          	addi	a3,a3,-450 # 20000044 <_data_section_vma_end>
 20e:	00d70a63          	beq	a4,a3,222 <load_data+0x28>
 212:	0007a283          	lw	t0,0(a5)
 216:	00572023          	sw	t0,0(a4)
 21a:	0711                	addi	a4,a4,4
 21c:	0791                	addi	a5,a5,4
 21e:	fed74ae3          	blt	a4,a3,212 <load_data+0x18>
 222:	8082                	ret

00000224 <systick_cfg>:
 224:	1171                	addi	sp,sp,-4
 226:	c006                	sw	ra,0(sp)
 228:	e000f7b7          	lui	a5,0xe000f
 22c:	00878793          	addi	a5,a5,8 # e000f008 <__STK_CMPR+0xfffffff8>
 230:	0007a023          	sw	zero,0(a5)
 234:	e000f7b7          	lui	a5,0xe000f
 238:	01078793          	addi	a5,a5,16 # e000f010 <__STK_CMPR+0x0>
 23c:	6711                	lui	a4,0x4
 23e:	c398                	sw	a4,0(a5)
 240:	e000f7b7          	lui	a5,0xe000f
 244:	4398                	lw	a4,0(a5)
 246:	46bd                	li	a3,15
 248:	8f55                	or	a4,a4,a3
 24a:	00176713          	ori	a4,a4,1
 24e:	c398                	sw	a4,0(a5)
 250:	4082                	lw	ra,0(sp)
 252:	0111                	addi	sp,sp,4
 254:	8082                	ret

00000256 <watch_systick_reg>:
 256:	1161                	addi	sp,sp,-8
 258:	c022                	sw	s0,0(sp)
 25a:	c206                	sw	ra,4(sp)
 25c:	0020                	addi	s0,sp,8
 25e:	20000797          	auipc	a5,0x20000
 262:	dd278793          	addi	a5,a5,-558 # 20000030 <systick_struct>
 266:	e000f737          	lui	a4,0xe000f
 26a:	4314                	lw	a3,0(a4)
 26c:	c394                	sw	a3,0(a5)
 26e:	e000f737          	lui	a4,0xe000f
 272:	00470713          	addi	a4,a4,4 # e000f004 <__STK_CMPR+0xfffffff4>
 276:	4314                	lw	a3,0(a4)
 278:	c3d4                	sw	a3,4(a5)
 27a:	e000f737          	lui	a4,0xe000f
 27e:	00870713          	addi	a4,a4,8 # e000f008 <__STK_CMPR+0xfffffff8>
 282:	4314                	lw	a3,0(a4)
 284:	c794                	sw	a3,8(a5)
 286:	e000f737          	lui	a4,0xe000f
 28a:	01070713          	addi	a4,a4,16 # e000f010 <__STK_CMPR+0x0>
 28e:	4314                	lw	a3,0(a4)
 290:	c7d4                	sw	a3,12(a5)
 292:	4402                	lw	s0,0(sp)
 294:	4092                	lw	ra,4(sp)
 296:	0121                	addi	sp,sp,8
 298:	8082                	ret
	...

Disassembly of section .isr_vector:

0000029c <unified_entry-0x164>:
	...

00000400 <unified_entry>:
 400:	20000297          	auipc	t0,0x20000
 404:	c4028293          	addi	t0,t0,-960 # 20000040 <systick_count>
 408:	0002a303          	lw	t1,0(t0)
 40c:	0305                	addi	t1,t1,1
 40e:	0062a023          	sw	t1,0(t0)
 412:	30200073          	mret
	...

Disassembly of section .my_stack:

20000700 <_my_stack_start-0x100>:
	...
