
target.elf:     file format elf32-littleriscv


Disassembly of section .text:

00000000 <my_start>:
   0:	4081                	li	ra,0
   2:	4101                	li	sp,0
   4:	4181                	li	gp,0
   6:	4201                	li	tp,0
   8:	4281                	li	t0,0
   a:	4301                	li	t1,0
   c:	4381                	li	t2,0
   e:	4401                	li	s0,0
  10:	4481                	li	s1,0
  12:	4501                	li	a0,0
  14:	4581                	li	a1,0
  16:	4601                	li	a2,0
  18:	4681                	li	a3,0
  1a:	4701                	li	a4,0
  1c:	4781                	li	a5,0
  1e:	20000117          	auipc	sp,0x20000
  22:	7e210113          	addi	sp,sp,2018 # 20000800 <_my_stack_start>
  26:	22f5                	jal	212 <load_data>
  28:	1ca000ef          	jal	ra,1f2 <init_bss>
  2c:	804022f3          	csrr	t0,0x804
  30:	40000293          	li	t0,1024
  34:	30529073          	csrw	mtvec,t0
  38:	30502373          	csrr	t1,mtvec
  3c:	0f8000ef          	jal	ra,134 <led_cfg>
  40:	1fc000ef          	jal	ra,23c <systick_cfg>
  44:	000022b7          	lui	t0,0x2
  48:	88028293          	addi	t0,t0,-1920 # 1880 <__sram_size+0x1180>
  4c:	300292f3          	csrrw	t0,mstatus,t0
  50:	00000297          	auipc	t0,0x0
  54:	01028293          	addi	t0,t0,16 # 60 <my_main>
  58:	34129073          	csrw	mepc,t0
  5c:	30200073          	mret

00000060 <my_main>:
  60:	21a000ef          	jal	ra,27a <watch_systick_reg>
  64:	80402473          	csrr	s0,0x804
  68:	342024f3          	csrr	s1,mcause
  6c:	0001                	nop
  6e:	fe0009e3          	beqz	zero,60 <my_main>
	...

00000074 <watch_rcc_reg>:
  74:	1171                	addi	sp,sp,-4
  76:	c006                	sw	ra,0(sp)
  78:	20000797          	auipc	a5,0x20000
  7c:	f8878793          	addi	a5,a5,-120 # 20000000 <_data_section_vma_start>
  80:	40021737          	lui	a4,0x40021
  84:	4314                	lw	a3,0(a4)
  86:	c394                	sw	a3,0(a5)
  88:	40021737          	lui	a4,0x40021
  8c:	00470713          	addi	a4,a4,4 # 40021004 <__RCC_CFGR0>
  90:	4314                	lw	a3,0(a4)
  92:	c3d4                	sw	a3,4(a5)
  94:	40021737          	lui	a4,0x40021
  98:	00870713          	addi	a4,a4,8 # 40021008 <__RCC_INTR>
  9c:	4314                	lw	a3,0(a4)
  9e:	c794                	sw	a3,8(a5)
  a0:	40021737          	lui	a4,0x40021
  a4:	00c70713          	addi	a4,a4,12 # 4002100c <__RCC_APB2PRSTR>
  a8:	4314                	lw	a3,0(a4)
  aa:	c7d4                	sw	a3,12(a5)
  ac:	40021737          	lui	a4,0x40021
  b0:	01070713          	addi	a4,a4,16 # 40021010 <__RCC_APB1PRSTR>
  b4:	4314                	lw	a3,0(a4)
  b6:	cb94                	sw	a3,16(a5)
  b8:	40021737          	lui	a4,0x40021
  bc:	01470713          	addi	a4,a4,20 # 40021014 <__RCC_AHBPCENR>
  c0:	4314                	lw	a3,0(a4)
  c2:	cbd4                	sw	a3,20(a5)
  c4:	40021737          	lui	a4,0x40021
  c8:	01870713          	addi	a4,a4,24 # 40021018 <__RCC_APB2PCENR>
  cc:	4314                	lw	a3,0(a4)
  ce:	cf94                	sw	a3,24(a5)
  d0:	40021737          	lui	a4,0x40021
  d4:	01c70713          	addi	a4,a4,28 # 4002101c <__RCC_APB1PCENR>
  d8:	4314                	lw	a3,0(a4)
  da:	cfd4                	sw	a3,28(a5)
  dc:	40021737          	lui	a4,0x40021
  e0:	02470713          	addi	a4,a4,36 # 40021024 <__RCC_RSTSCKR>
  e4:	4314                	lw	a3,0(a4)
  e6:	d394                	sw	a3,32(a5)
  e8:	4082                	lw	ra,0(sp)
  ea:	0111                	addi	sp,sp,4
  ec:	8082                	ret

000000ee <watch_gpiod_reg>:
  ee:	1171                	addi	sp,sp,-4
  f0:	c006                	sw	ra,0(sp)
  f2:	20000797          	auipc	a5,0x20000
  f6:	f3278793          	addi	a5,a5,-206 # 20000024 <gpiod_struct>
  fa:	40011737          	lui	a4,0x40011
  fe:	40070713          	addi	a4,a4,1024 # 40011400 <__GPIOD_CFGLR>
 102:	4314                	lw	a3,0(a4)
 104:	c394                	sw	a3,0(a5)
 106:	40011737          	lui	a4,0x40011
 10a:	40c70713          	addi	a4,a4,1036 # 4001140c <__GPIOD_OUTDR>
 10e:	00075683          	lhu	a3,0(a4)
 112:	00d79223          	sh	a3,4(a5)
 116:	40011737          	lui	a4,0x40011
 11a:	41070713          	addi	a4,a4,1040 # 40011410 <__GPIOD_BSHR>
 11e:	00075683          	lhu	a3,0(a4)
 122:	00d79323          	sh	a3,6(a5)
 126:	00275683          	lhu	a3,2(a4)
 12a:	00d79423          	sh	a3,8(a5)
 12e:	4082                	lw	ra,0(sp)
 130:	0111                	addi	sp,sp,4
 132:	8082                	ret

00000134 <led_cfg>:
 134:	1171                	addi	sp,sp,-4
 136:	c006                	sw	ra,0(sp)
 138:	3f35                	jal	74 <watch_rcc_reg>
 13a:	2849                	jal	1cc <led_rcc_cfg>
 13c:	3f25                	jal	74 <watch_rcc_reg>
 13e:	3f45                	jal	ee <watch_gpiod_reg>
 140:	2081                	jal	180 <led_gpio_cfg>
 142:	3775                	jal	ee <watch_gpiod_reg>
 144:	4082                	lw	ra,0(sp)
 146:	0111                	addi	sp,sp,4
 148:	8082                	ret

0000014a <led_ctrl>:
 14a:	1151                	addi	sp,sp,-12
 14c:	c406                	sw	ra,8(sp)
 14e:	c222                	sw	s0,4(sp)
 150:	0060                	addi	s0,sp,12
 152:	fea42a23          	sw	a0,-12(s0)
 156:	ff442783          	lw	a5,-12(s0)
 15a:	40011737          	lui	a4,0x40011
 15e:	41070713          	addi	a4,a4,1040 # 40011410 <__GPIOD_BSHR>
 162:	4685                	li	a3,1
 164:	c789                	beqz	a5,16e <led_ctrl+0x24>
 166:	06c2                	slli	a3,a3,0x10
 168:	c314                	sw	a3,0(a4)
 16a:	00000563          	beqz	zero,174 <led_ctrl+0x2a>
 16e:	00069693          	slli	a3,a3,0x0
 172:	c314                	sw	a3,0(a4)
 174:	ff440113          	addi	sp,s0,-12
 178:	c222                	sw	s0,4(sp)
 17a:	c406                	sw	ra,8(sp)
 17c:	0131                	addi	sp,sp,12
 17e:	8082                	ret

00000180 <led_gpio_cfg>:
 180:	1171                	addi	sp,sp,-4
 182:	c006                	sw	ra,0(sp)
 184:	400117b7          	lui	a5,0x40011
 188:	40078793          	addi	a5,a5,1024 # 40011400 <__GPIOD_CFGLR>
 18c:	4398                	lw	a4,0(a5)
 18e:	46bd                	li	a3,15
 190:	00069693          	slli	a3,a3,0x0
 194:	fff6c693          	not	a3,a3
 198:	8f75                	and	a4,a4,a3
 19a:	4689                	li	a3,2
 19c:	00069693          	slli	a3,a3,0x0
 1a0:	8f55                	or	a4,a4,a3
 1a2:	c398                	sw	a4,0(a5)
 1a4:	400117b7          	lui	a5,0x40011
 1a8:	40c78793          	addi	a5,a5,1036 # 4001140c <__GPIOD_OUTDR>
 1ac:	4398                	lw	a4,0(a5)
 1ae:	4685                	li	a3,1
 1b0:	00069693          	slli	a3,a3,0x0
 1b4:	fff6c693          	not	a3,a3
 1b8:	8f75                	and	a4,a4,a3
 1ba:	4685                	li	a3,1
 1bc:	00069693          	slli	a3,a3,0x0
 1c0:	8f55                	or	a4,a4,a3
 1c2:	00e79023          	sh	a4,0(a5)
 1c6:	4082                	lw	ra,0(sp)
 1c8:	0111                	addi	sp,sp,4
 1ca:	8082                	ret

000001cc <led_rcc_cfg>:
 1cc:	1171                	addi	sp,sp,-4
 1ce:	c006                	sw	ra,0(sp)
 1d0:	400217b7          	lui	a5,0x40021
 1d4:	01878793          	addi	a5,a5,24 # 40021018 <__RCC_APB2PCENR>
 1d8:	4398                	lw	a4,0(a5)
 1da:	4685                	li	a3,1
 1dc:	0696                	slli	a3,a3,0x5
 1de:	fff6c693          	not	a3,a3
 1e2:	8f75                	and	a4,a4,a3
 1e4:	4685                	li	a3,1
 1e6:	0696                	slli	a3,a3,0x5
 1e8:	8f55                	or	a4,a4,a3
 1ea:	c398                	sw	a4,0(a5)
 1ec:	4082                	lw	ra,0(sp)
 1ee:	0111                	addi	sp,sp,4
 1f0:	8082                	ret

000001f2 <init_bss>:
 1f2:	20000797          	auipc	a5,0x20000
 1f6:	e5278793          	addi	a5,a5,-430 # 20000044 <_data_section_vma_end>
 1fa:	20000717          	auipc	a4,0x20000
 1fe:	e4a70713          	addi	a4,a4,-438 # 20000044 <_data_section_vma_end>
 202:	00f70763          	beq	a4,a5,210 <init_bss+0x1e>
 206:	0007a023          	sw	zero,0(a5)
 20a:	0791                	addi	a5,a5,4
 20c:	fee7cde3          	blt	a5,a4,206 <init_bss+0x14>
 210:	8082                	ret

00000212 <load_data>:
 212:	48000793          	li	a5,1152
 216:	20000717          	auipc	a4,0x20000
 21a:	dea70713          	addi	a4,a4,-534 # 20000000 <_data_section_vma_start>
 21e:	20000697          	auipc	a3,0x20000
 222:	e2668693          	addi	a3,a3,-474 # 20000044 <_data_section_vma_end>
 226:	00d70a63          	beq	a4,a3,23a <load_data+0x28>
 22a:	0007a283          	lw	t0,0(a5)
 22e:	00572023          	sw	t0,0(a4)
 232:	0711                	addi	a4,a4,4
 234:	0791                	addi	a5,a5,4
 236:	fed74ae3          	blt	a4,a3,22a <load_data+0x18>
 23a:	8082                	ret

0000023c <systick_cfg>:
 23c:	1171                	addi	sp,sp,-4
 23e:	c006                	sw	ra,0(sp)
 240:	e000e7b7          	lui	a5,0xe000e
 244:	10078793          	addi	a5,a5,256 # e000e100 <__STK_CMPR+0xfffff0f0>
 248:	6705                	lui	a4,0x1
 24a:	c398                	sw	a4,0(a5)
 24c:	e000f7b7          	lui	a5,0xe000f
 250:	00878793          	addi	a5,a5,8 # e000f008 <__STK_CMPR+0xfffffff8>
 254:	0007a023          	sw	zero,0(a5)
 258:	e000f7b7          	lui	a5,0xe000f
 25c:	01078793          	addi	a5,a5,16 # e000f010 <__STK_CMPR+0x0>
 260:	6741                	lui	a4,0x10
 262:	c398                	sw	a4,0(a5)
 264:	e000f7b7          	lui	a5,0xe000f
 268:	4398                	lw	a4,0(a5)
 26a:	46bd                	li	a3,15
 26c:	8f55                	or	a4,a4,a3
 26e:	00176713          	ori	a4,a4,1
 272:	c398                	sw	a4,0(a5)
 274:	4082                	lw	ra,0(sp)
 276:	0111                	addi	sp,sp,4
 278:	8082                	ret

0000027a <watch_systick_reg>:
 27a:	1161                	addi	sp,sp,-8
 27c:	c022                	sw	s0,0(sp)
 27e:	c206                	sw	ra,4(sp)
 280:	0020                	addi	s0,sp,8
 282:	20000797          	auipc	a5,0x20000
 286:	dae78793          	addi	a5,a5,-594 # 20000030 <systick_struct>
 28a:	e000f737          	lui	a4,0xe000f
 28e:	4314                	lw	a3,0(a4)
 290:	c394                	sw	a3,0(a5)
 292:	e000f737          	lui	a4,0xe000f
 296:	00470713          	addi	a4,a4,4 # e000f004 <__STK_CMPR+0xfffffff4>
 29a:	4314                	lw	a3,0(a4)
 29c:	c3d4                	sw	a3,4(a5)
 29e:	e000f737          	lui	a4,0xe000f
 2a2:	00870713          	addi	a4,a4,8 # e000f008 <__STK_CMPR+0xfffffff8>
 2a6:	4314                	lw	a3,0(a4)
 2a8:	c794                	sw	a3,8(a5)
 2aa:	e000f737          	lui	a4,0xe000f
 2ae:	01070713          	addi	a4,a4,16 # e000f010 <__STK_CMPR+0x0>
 2b2:	4314                	lw	a3,0(a4)
 2b4:	c7d4                	sw	a3,12(a5)
 2b6:	4402                	lw	s0,0(sp)
 2b8:	4092                	lw	ra,4(sp)
 2ba:	0121                	addi	sp,sp,8
 2bc:	8082                	ret
	...

Disassembly of section .isr_vector:

000002c0 <unified_entry-0x140>:
	...

00000400 <unified_entry>:
 400:	342022f3          	csrr	t0,mcause
 404:	80000337          	lui	t1,0x80000
 408:	0062f333          	and	t1,t0,t1
 40c:	00030463          	beqz	t1,414 <unified_entry+0x14>
 410:	02031063          	bnez	t1,430 <unified_entry+0x30>
 414:	80000337          	lui	t1,0x80000
 418:	fff30313          	addi	t1,t1,-1 # 7fffffff <__STK_CMPR+0x9fff0fef>
 41c:	00537433          	and	s0,t1,t0
 420:	e000e337          	lui	t1,0xe000e
 424:	02030313          	addi	t1,t1,32 # e000e020 <__STK_CMPR+0xfffff010>
 428:	00032483          	lw	s1,0(t1)
 42c:	fe0004e3          	beqz	zero,414 <unified_entry+0x14>
 430:	80000337          	lui	t1,0x80000
 434:	fff30313          	addi	t1,t1,-1 # 7fffffff <__STK_CMPR+0x9fff0fef>
 438:	00537433          	and	s0,t1,t0
 43c:	4331                	li	t1,12
 43e:	02641e63          	bne	s0,t1,47a <unified_entry+0x7a>
 442:	20000297          	auipc	t0,0x20000
 446:	bfe28293          	addi	t0,t0,-1026 # 20000040 <systick_count>
 44a:	0002a303          	lw	t1,0(t0)
 44e:	0305                	addi	t1,t1,1
 450:	0062a023          	sw	t1,0(t0)
 454:	00737333          	and	t1,t1,t2
 458:	00137313          	andi	t1,t1,1
 45c:	00030563          	beqz	t1,466 <unified_entry+0x66>
 460:	4501                	li	a0,0
 462:	00000363          	beqz	zero,468 <unified_entry+0x68>
 466:	4505                	li	a0,1
 468:	ce3ff0ef          	jal	ra,14a <led_ctrl>
 46c:	e000f2b7          	lui	t0,0xe000f
 470:	00428293          	addi	t0,t0,4 # e000f004 <__STK_CMPR+0xfffffff4>
 474:	4305                	li	t1,1
 476:	0062a023          	sw	t1,0(t0)
 47a:	30200073          	mret
	...

Disassembly of section .my_stack:

20000700 <_my_stack_start-0x100>:
	...
