
target.elf:     file format elf32-littleriscv


Disassembly of section .text:

00000000 <my_start>:

my_start:
/*
    from now on, i will use abi specific for register name.
*/
    li ra, 0 # x1 = 0
   0:	4081                	li	ra,0
    li sp, 0 # x2 = 0
   2:	4101                	li	sp,0
    li gp, 0 # x3 = 0
   4:	4181                	li	gp,0
    li tp, 0 # x4 = 0
   6:	4201                	li	tp,0
    li t0, 0 # x5 = 0
   8:	4281                	li	t0,0
    li t1, 0 # x6 = 0
   a:	4301                	li	t1,0
    li t2, 0 # x7 = 0
   c:	4381                	li	t2,0
    li s0, 0 # x8 = 0  s0/fp := x8
   e:	4401                	li	s0,0
    li s1, 0 # x9 = 0
  10:	4481                	li	s1,0
    li a0, 0 # x10 = 0
  12:	4501                	li	a0,0
    li a1, 0 # x11 = 0
  14:	4581                	li	a1,0
    li a2, 0 # x12 = 0
  16:	4601                	li	a2,0
    li a3, 0 # x13 = 0
  18:	4681                	li	a3,0
    li a4, 0 # x14 = 0
  1a:	4701                	li	a4,0
    li a5, 0 # x15 = 0
  1c:	4781                	li	a5,0

    # initialize stack point
    la sp, _my_stack_start # sp = _my_stack_start
  1e:	20000117          	auipc	sp,0x20000
  22:	7e210113          	addi	sp,sp,2018 # 20000800 <_my_stack_start>
    
    # load data from flash to sram
    call load_data  # load data from flash to sram
  26:	2861                	jal	be <load_data>
    jal init_bss  # jump to init_bss and save position to ra
  28:	076000ef          	jal	ra,9e <init_bss>
    j main  # jump to main
  2c:	0500006f          	j	7c <main>
    

    nop
  30:	0001                	nop

00000032 <fibonacci>:


int fibonacci(int n) {
  32:	1121                	addi	sp,sp,-24
  34:	ca06                	sw	ra,20(sp)
  36:	c822                	sw	s0,16(sp)
  38:	0820                	addi	s0,sp,24
  3a:	fea42423          	sw	a0,-24(s0)
  int t, s;
  if (n < 2) {
  3e:	fe842703          	lw	a4,-24(s0)
  42:	4785                	li	a5,1
  44:	00e7c463          	blt	a5,a4,4c <fibonacci+0x1a>
    return 1;
  48:	4785                	li	a5,1
  4a:	a025                	j	72 <fibonacci+0x40>
  }
  s = fibonacci(n - 1);
  4c:	fe842783          	lw	a5,-24(s0)
  50:	17fd                	addi	a5,a5,-1
  52:	853e                	mv	a0,a5
  54:	3ff9                	jal	32 <fibonacci>
  56:	fea42823          	sw	a0,-16(s0)
  t = fibonacci(n - 2);
  5a:	fe842783          	lw	a5,-24(s0)
  5e:	17f9                	addi	a5,a5,-2
  60:	853e                	mv	a0,a5
  62:	3fc1                	jal	32 <fibonacci>
  64:	fea42623          	sw	a0,-20(s0)
  return s + t;
  68:	ff042703          	lw	a4,-16(s0)
  6c:	fec42783          	lw	a5,-20(s0)
  70:	97ba                	add	a5,a5,a4
}
  72:	853e                	mv	a0,a5
  74:	40d2                	lw	ra,20(sp)
  76:	4442                	lw	s0,16(sp)
  78:	0161                	addi	sp,sp,24
  7a:	8082                	ret

0000007c <main>:
int main(void) {
  7c:	1141                	addi	sp,sp,-16
  7e:	c606                	sw	ra,12(sp)
  80:	c422                	sw	s0,8(sp)
  82:	0800                	addi	s0,sp,16
  // int n = 10;
  int result = 0;
  84:	fe042823          	sw	zero,-16(s0)

  result = fibonacci(10);
  88:	4529                	li	a0,10
  8a:	3765                	jal	32 <fibonacci>
  8c:	fea42823          	sw	a0,-16(s0)

  return result;
  90:	ff042783          	lw	a5,-16(s0)
  94:	853e                	mv	a0,a5
  96:	40b2                	lw	ra,12(sp)
  98:	4422                	lw	s0,8(sp)
  9a:	0141                	addi	sp,sp,16
  9c:	8082                	ret

0000009e <init_bss>:
.globl init_bss
.type init_bss, @function
init_bss:
    # bss data are non-initialized data.
    # but people are usually initialize them as zero.
    la a5, _bss_data_start # 
  9e:	20000797          	auipc	a5,0x20000
  a2:	f6278793          	addi	a5,a5,-158 # 20000000 <_data_section_vma_end>
    la a4, _bss_data_end # 
  a6:	20000717          	auipc	a4,0x20000
  aa:	f5a70713          	addi	a4,a4,-166 # 20000000 <_data_section_vma_end>
    beq a4, a5, 2f; # if a4 == a5 then 2f
  ae:	00f70763          	beq	a4,a5,bc <init_bss+0x1e>
    
1:
    sw zero, 0(a5) # 
  b2:	0007a023          	sw	zero,0(a5)
    addi a5, a5, 4; # a5 = a5 + 4
  b6:	0791                	addi	a5,a5,4
    blt a5, a4, 1b # if a5 < a4 then 1b
  b8:	fee7cde3          	blt	a5,a4,b2 <init_bss+0x14>

2:
    ret
  bc:	8082                	ret

000000be <load_data>:
    # flash data start address is saved in symbol _data_section_lma_start
    # ram data start address is saved in symbol _data_section_vma_start
    # ram data end address is saved in symbol _data_section_end
    # so, data that need to be initialized length is _data_section_end - _data_section_vma_start

    la a5, _data_section_lma_start # 
  be:	0e800793          	li	a5,232
    la a4, _data_section_vma_start # 
  c2:	20000717          	auipc	a4,0x20000
  c6:	f3e70713          	addi	a4,a4,-194 # 20000000 <_data_section_vma_end>
    la a3, _data_section_vma_end # 
  ca:	20000697          	auipc	a3,0x20000
  ce:	f3668693          	addi	a3,a3,-202 # 20000000 <_data_section_vma_end>
        if(a4 == a3)    data length != 0
        {

        }
    */
    beq a4, a3, 2f # if a4 == a3 then 1f
  d2:	00d70a63          	beq	a4,a3,e6 <load_data+0x28>
1:
    /*
        t0 = int* (a5)[0]
        int* (a4)[0] = t0
    */
    lw t0, 0(a5) #
  d6:	0007a283          	lw	t0,0(a5)
    sw t0, 0(a4) #
  da:	00572023          	sw	t0,0(a4)
    addi a4, a4, 4; # a4 = a4 + 4
  de:	0711                	addi	a4,a4,4
    addi a5, a5, 4; # a5 = a5 + 4
  e0:	0791                	addi	a5,a5,4
    blt a4, a3, 1b # if a4 < a3 then 1b
  e2:	fed74ae3          	blt	a4,a3,d6 <load_data+0x18>
2:  
    ret
  e6:	8082                	ret

Disassembly of section .my_stack:

20000700 <_my_stack_start-0x100>:
	...
