
target.elf:     file format elf32-littleriscv


Disassembly of section .text:

00000000 <my_start>:

my_start:
/*
    from now on, i will use abi specific for register name.
*/
    li ra, 0 # x1 = 0
   0:	4081                	li	ra,0
    li sp, 0 # x2 = 0
   2:	4101                	li	sp,0
    li gp, 0 # x3 = 0
   4:	4181                	li	gp,0
    li tp, 0 # x4 = 0
   6:	4201                	li	tp,0
    li t0, 0 # x5 = 0
   8:	4281                	li	t0,0
    li t1, 0 # x6 = 0
   a:	4301                	li	t1,0
    li t2, 0 # x7 = 0
   c:	4381                	li	t2,0
    li s0, 0 # x8 = 0  s0/fp := x8
   e:	4401                	li	s0,0
    li s1, 0 # x9 = 0
  10:	4481                	li	s1,0
    li a0, 0 # x10 = 0
  12:	4501                	li	a0,0
    li a1, 0 # x11 = 0
  14:	4581                	li	a1,0
    li a2, 0 # x12 = 0
  16:	4601                	li	a2,0
    li a3, 0 # x13 = 0
  18:	4681                	li	a3,0
    li a4, 0 # x14 = 0
  1a:	4701                	li	a4,0
    li a5, 0 # x15 = 0
  1c:	4781                	li	a5,0

    # initialize stack point
    la sp, _my_stack_start # sp = _my_stack_start
  1e:	20000117          	auipc	sp,0x20000
  22:	7e210113          	addi	sp,sp,2018 # 20000800 <_my_stack_start>
    
    # load data from flash to sram
    call load_data  # load data from flash to sram
  26:	2a29                	jal	140 <load_data>
    jal init_bss  # jump to init_bss and save position to ra
  28:	0f8000ef          	jal	ra,120 <init_bss>
    j main  # jump to main
  2c:	0920006f          	j	be <main>
    

    nop
  30:	0001                	nop

00000032 <foo>:
int foo(int a, int b, int c, int d, int e, int f, int g, int h, int i, int j,
        int k, int l, int m) {
  32:	fd810113          	addi	sp,sp,-40
  36:	d206                	sw	ra,36(sp)
  38:	d022                	sw	s0,32(sp)
  3a:	1020                	addi	s0,sp,40
  3c:	fea42623          	sw	a0,-20(s0)
  40:	feb42423          	sw	a1,-24(s0)
  44:	fec42223          	sw	a2,-28(s0)
  48:	fed42023          	sw	a3,-32(s0)
  4c:	fce42e23          	sw	a4,-36(s0)
  50:	fcf42c23          	sw	a5,-40(s0)

  int sum;

  sum = (a + b + c + d + e + f - g - h - i) * j * k;
  54:	fec42703          	lw	a4,-20(s0)
  58:	fe842783          	lw	a5,-24(s0)
  5c:	973e                	add	a4,a4,a5
  5e:	fe442783          	lw	a5,-28(s0)
  62:	973e                	add	a4,a4,a5
  64:	fe042783          	lw	a5,-32(s0)
  68:	973e                	add	a4,a4,a5
  6a:	fdc42783          	lw	a5,-36(s0)
  6e:	973e                	add	a4,a4,a5
  70:	fd842783          	lw	a5,-40(s0)
  74:	973e                	add	a4,a4,a5
  76:	401c                	lw	a5,0(s0)    /* g */
  78:	8f1d                	sub	a4,a4,a5
  7a:	405c                	lw	a5,4(s0)    /* h */
  7c:	8f1d                	sub	a4,a4,a5
  7e:	441c                	lw	a5,8(s0)    /* i */
  80:	40f707b3          	sub	a5,a4,a5
  84:	444c                	lw	a1,12(s0)   /* j */
  86:	853e                	mv	a0,a5
  88:	20d5                	jal	16c <__mulsi3>
  8a:	87aa                	mv	a5,a0
  8c:	85be                	mv	a1,a5
  8e:	4808                	lw	a0,16(s0)   /* k */
  90:	28f1                	jal	16c <__mulsi3>
  92:	87aa                	mv	a5,a0
  94:	fef42823          	sw	a5,-16(s0)
  sum = sum * m / l;
  98:	4c0c                	lw	a1,24(s0)   /* m */
  9a:	ff042503          	lw	a0,-16(s0)    /* sum */
  9e:	20f9                	jal	16c <__mulsi3>
  a0:	87aa                	mv	a5,a0
  a2:	484c                	lw	a1,20(s0)   /* l */
  a4:	853e                	mv	a0,a5
  a6:	28f9                	jal	184 <__divsi3>
  a8:	87aa                	mv	a5,a0
  aa:	fef42823          	sw	a5,-16(s0)    /* sum = [s0-16]*/

  return sum;
  ae:	ff042783          	lw	a5,-16(s0)
}
  b2:	853e                	mv	a0,a5
  b4:	5092                	lw	ra,36(sp)
  b6:	5402                	lw	s0,32(sp)
  b8:	02810113          	addi	sp,sp,40
  bc:	8082                	ret

000000be <main>:

int main(void) {
  be:	fc810113          	addi	sp,sp,-56
  c2:	da06                	sw	ra,52(sp)
  c4:	d822                	sw	s0,48(sp)
  c6:	1820                	addi	s0,sp,56
  int e, g, l, result;
  e = 3, g = 21, l = 5;
  c8:	478d                	li	a5,3
  ca:	fef42823          	sw	a5,-16(s0)
  ce:	47d5                	li	a5,21
  d0:	fef42623          	sw	a5,-20(s0)
  d4:	4795                	li	a5,5
  d6:	fef42423          	sw	a5,-24(s0)
  result = foo(10, 9, 8, 15, e, 20, g, 0, -13, 41, 29, l, 51);
  da:	03300793          	li	a5,51
  de:	cc3e                	sw	a5,24(sp)
  e0:	fe842783          	lw	a5,-24(s0)
  e4:	ca3e                	sw	a5,20(sp)
  e6:	47f5                	li	a5,29
  e8:	c83e                	sw	a5,16(sp)
  ea:	02900793          	li	a5,41
  ee:	c63e                	sw	a5,12(sp)
  f0:	57cd                	li	a5,-13
  f2:	c43e                	sw	a5,8(sp)
  f4:	c202                	sw	zero,4(sp)
  f6:	fec42783          	lw	a5,-20(s0)
  fa:	c03e                	sw	a5,0(sp)
  fc:	47d1                	li	a5,20
  fe:	ff042703          	lw	a4,-16(s0)
 102:	46bd                	li	a3,15
 104:	4621                	li	a2,8
 106:	45a5                	li	a1,9
 108:	4529                	li	a0,10
 10a:	3725                	jal	32 <foo>
 10c:	fea42223          	sw	a0,-28(s0)

  return result;
 110:	fe442783          	lw	a5,-28(s0)
 114:	853e                	mv	a0,a5
 116:	50d2                	lw	ra,52(sp)
 118:	5442                	lw	s0,48(sp)
 11a:	03810113          	addi	sp,sp,56
 11e:	8082                	ret

00000120 <init_bss>:
.globl init_bss
.type init_bss, @function
init_bss:
    # bss data are non-initialized data.
    # but people are usually initialize them as zero.
    la a5, _bss_data_start # 
 120:	20000797          	auipc	a5,0x20000
 124:	ee078793          	addi	a5,a5,-288 # 20000000 <_data_section_vma_end>
    la a4, _bss_data_end # 
 128:	20000717          	auipc	a4,0x20000
 12c:	ed870713          	addi	a4,a4,-296 # 20000000 <_data_section_vma_end>
    beq a4, a5, 2f; # if a4 == a5 then 2f
 130:	00f70763          	beq	a4,a5,13e <init_bss+0x1e>
    
1:
    sw zero, 0(a5) # 
 134:	0007a023          	sw	zero,0(a5)
    addi a5, a5, 4; # a5 = a5 + 4
 138:	0791                	addi	a5,a5,4
    blt a5, a4, 1b # if a5 < a4 then 1b
 13a:	fee7cde3          	blt	a5,a4,134 <init_bss+0x14>

2:
    ret
 13e:	8082                	ret

00000140 <load_data>:
    # flash data start address is saved in symbol _data_section_lma_start
    # ram data start address is saved in symbol _data_section_vma_start
    # ram data end address is saved in symbol _data_section_end
    # so, data that need to be initialized length is _data_section_end - _data_section_vma_start

    la a5, _data_section_lma_start # 
 140:	20400793          	li	a5,516
    la a4, _data_section_vma_start # 
 144:	20000717          	auipc	a4,0x20000
 148:	ebc70713          	addi	a4,a4,-324 # 20000000 <_data_section_vma_end>
    la a3, _data_section_vma_end # 
 14c:	20000697          	auipc	a3,0x20000
 150:	eb468693          	addi	a3,a3,-332 # 20000000 <_data_section_vma_end>
        if(a4 == a3)    data length != 0
        {

        }
    */
    beq a4, a3, 2f # if a4 == a3 then 1f
 154:	00d70a63          	beq	a4,a3,168 <load_data+0x28>
1:
    /*
        t0 = int* (a5)[0]
        int* (a4)[0] = t0
    */
    lw t0, 0(a5) #
 158:	0007a283          	lw	t0,0(a5)
    sw t0, 0(a4) #
 15c:	00572023          	sw	t0,0(a4)
    addi a4, a4, 4; # a4 = a4 + 4
 160:	0711                	addi	a4,a4,4
    addi a5, a5, 4; # a5 = a5 + 4
 162:	0791                	addi	a5,a5,4
    blt a4, a3, 1b # if a4 < a3 then 1b
 164:	fed74ae3          	blt	a4,a3,158 <load_data+0x18>
2:  
    ret
 168:	8082                	ret
	...

0000016c <__mulsi3>:
 16c:	862a                	mv	a2,a0
 16e:	4501                	li	a0,0
 170:	0015f693          	andi	a3,a1,1
 174:	c291                	beqz	a3,178 <__mulsi3+0xc>
 176:	9532                	add	a0,a0,a2
 178:	8185                	srli	a1,a1,0x1
 17a:	0606                	slli	a2,a2,0x1
 17c:	f9f5                	bnez	a1,170 <__mulsi3+0x4>
 17e:	8082                	ret
 180:	0000                	unimp
	...

00000184 <__divsi3>:
 184:	02054e63          	bltz	a0,1c0 <__umodsi3+0x8>
 188:	0405c363          	bltz	a1,1ce <__umodsi3+0x16>

0000018c <__udivsi3>:
 18c:	862e                	mv	a2,a1
 18e:	85aa                	mv	a1,a0
 190:	557d                	li	a0,-1
 192:	c215                	beqz	a2,1b6 <__udivsi3+0x2a>
 194:	4685                	li	a3,1
 196:	00b67863          	bgeu	a2,a1,1a6 <__udivsi3+0x1a>
 19a:	00c05663          	blez	a2,1a6 <__udivsi3+0x1a>
 19e:	0606                	slli	a2,a2,0x1
 1a0:	0686                	slli	a3,a3,0x1
 1a2:	feb66ce3          	bltu	a2,a1,19a <__udivsi3+0xe>
 1a6:	4501                	li	a0,0
 1a8:	00c5e463          	bltu	a1,a2,1b0 <__udivsi3+0x24>
 1ac:	8d91                	sub	a1,a1,a2
 1ae:	8d55                	or	a0,a0,a3
 1b0:	8285                	srli	a3,a3,0x1
 1b2:	8205                	srli	a2,a2,0x1
 1b4:	faf5                	bnez	a3,1a8 <__udivsi3+0x1c>
 1b6:	8082                	ret

000001b8 <__umodsi3>:
 1b8:	8286                	mv	t0,ra
 1ba:	3fc9                	jal	18c <__udivsi3>
 1bc:	852e                	mv	a0,a1
 1be:	8282                	jr	t0
 1c0:	40a00533          	neg	a0,a0
 1c4:	0005d763          	bgez	a1,1d2 <__umodsi3+0x1a>
 1c8:	40b005b3          	neg	a1,a1
 1cc:	b7c1                	j	18c <__udivsi3>
 1ce:	40b005b3          	neg	a1,a1
 1d2:	8286                	mv	t0,ra
 1d4:	3f65                	jal	18c <__udivsi3>
 1d6:	40a00533          	neg	a0,a0
 1da:	8282                	jr	t0

000001dc <__modsi3>:
 1dc:	8286                	mv	t0,ra
 1de:	0005c763          	bltz	a1,1ec <__modsi3+0x10>
 1e2:	00054963          	bltz	a0,1f4 <__modsi3+0x18>
 1e6:	375d                	jal	18c <__udivsi3>
 1e8:	852e                	mv	a0,a1
 1ea:	8282                	jr	t0
 1ec:	40b005b3          	neg	a1,a1
 1f0:	fe055be3          	bgez	a0,1e6 <__modsi3+0xa>
 1f4:	40a00533          	neg	a0,a0
 1f8:	3f51                	jal	18c <__udivsi3>
 1fa:	40b00533          	neg	a0,a1
 1fe:	8282                	jr	t0
 200:	0000                	unimp
	...

Disassembly of section .my_stack:

20000700 <_my_stack_start-0x100>:
	...
